target datalayout = "e-m:e-p270:32:32-p271:32:32-p272:64:64-i64:64-i128:128-f80:128-n8:16:32:64-S128"
target triple = "x86_64-pc-linux-gnu"

%struct.siphash_data_st = type { ptr, %struct.siphash_st, %struct.siphash_st, i32, i32 }
%struct.siphash_st = type { i64, i64, i64, i64, i64, i32, i32, i32, i32, [8 x i8] }

; Function Attrs: nounwind uwtable
define internal i32 @drounds(ptr noundef %0) #0 {
  %2 = alloca ptr, align 8
  store ptr %0, ptr %2, align 8, !tbaa !7
  %3 = load ptr, ptr %2, align 8, !tbaa !7
  %4 = getelementptr inbounds nuw %struct.siphash_data_st, ptr %3, i32 0, i32 4
  %5 = load i32, ptr %4, align 4, !tbaa !30
  %6 = icmp ne i32 %5, 0
  br i1 %6, label %7, label %11

7:                                                ; preds = %1
  %8 = load ptr, ptr %2, align 8, !tbaa !7
  %9 = getelementptr inbounds nuw %struct.siphash_data_st, ptr %8, i32 0, i32 4
  %10 = load i32, ptr %9, align 4, !tbaa !30
  br label %12

11:                                               ; preds = %1
  br label %12

12:                                               ; preds = %11, %7
  %13 = phi i32 [ %10, %7 ], [ 4, %11 ]
  ret i32 %13
}

; Function Attrs: nounwind uwtable
define internal i32 @crounds(ptr noundef %0) #0 {
  %2 = alloca ptr, align 8
  store ptr %0, ptr %2, align 8, !tbaa !7
  %3 = load ptr, ptr %2, align 8, !tbaa !7
  %4 = getelementptr inbounds nuw %struct.siphash_data_st, ptr %3, i32 0, i32 3
  %5 = load i32, ptr %4, align 8, !tbaa !29
  %6 = icmp ne i32 %5, 0
  br i1 %6, label %7, label %11

7:                                                ; preds = %1
  %8 = load ptr, ptr %2, align 8, !tbaa !7
  %9 = getelementptr inbounds nuw %struct.siphash_data_st, ptr %8, i32 0, i32 3
  %10 = load i32, ptr %9, align 8, !tbaa !29
  br label %12

11:                                               ; preds = %1
  br label %12

12:                                               ; preds = %11, %7
  %13 = phi i32 [ %10, %7 ], [ 2, %11 ]
  ret i32 %13
}

; Function Attrs: nounwind uwtable
define internal i32 @siphash_setkey(ptr noundef %0, ptr noundef %1, i64 noundef %2) #0 {
  %4 = alloca i32, align 4
  %5 = alloca ptr, align 8
  %6 = alloca ptr, align 8
  %7 = alloca i64, align 8
  %8 = alloca i32, align 4
  %9 = alloca i32, align 4
  store ptr %0, ptr %5, align 8, !tbaa !7
  store ptr %1, ptr %6, align 8, !tbaa !18
  store i64 %2, ptr %7, align 8, !tbaa !15
  call void @llvm.lifetime.start.p0(i64 4, ptr %8) #5
  %10 = load i64, ptr %7, align 8, !tbaa !15
  %11 = icmp ne i64 %10, 16
  br i1 %11, label %12, label %13

12:                                               ; preds = %3
  store i32 0, ptr %4, align 4
  store i32 1, ptr %9, align 4
  br label %31

13:                                               ; preds = %3
  %14 = load ptr, ptr %5, align 8, !tbaa !7
  %15 = getelementptr inbounds nuw %struct.siphash_data_st, ptr %14, i32 0, i32 1
  %16 = load ptr, ptr %6, align 8, !tbaa !18
  %17 = load ptr, ptr %5, align 8, !tbaa !7
  %18 = call i32 @crounds(ptr noundef %17)
  %19 = load ptr, ptr %5, align 8, !tbaa !7
  %20 = call i32 @drounds(ptr noundef %19)
  %21 = call i32 @SipHash_Init(ptr noundef %15, ptr noundef %16, i32 noundef %18, i32 noundef %20)
  store i32 %21, ptr %8, align 4, !tbaa !16
  %22 = load i32, ptr %8, align 4, !tbaa !16
  %23 = icmp ne i32 %22, 0
  br i1 %23, label %24, label %29

24:                                               ; preds = %13
  %25 = load ptr, ptr %5, align 8, !tbaa !7
  %26 = getelementptr inbounds nuw %struct.siphash_data_st, ptr %25, i32 0, i32 2
  %27 = load ptr, ptr %5, align 8, !tbaa !7
  %28 = getelementptr inbounds nuw %struct.siphash_data_st, ptr %27, i32 0, i32 1
  call void @llvm.memcpy.p0.p0.i64(ptr align 8 %26, ptr align 8 %28, i64 64, i1 false), !tbaa.struct !22
  br label %29

29:                                               ; preds = %24, %13
  %30 = load i32, ptr %8, align 4, !tbaa !16
  store i32 %30, ptr %4, align 4
  store i32 1, ptr %9, align 4
  br label %31

31:                                               ; preds = %29, %12
  call void @llvm.lifetime.end.p0(i64 4, ptr %8) #5
  %32 = load i32, ptr %4, align 4
  ret i32 %32
}

; Function Attrs: nounwind uwtable
define internal i32 @siphash_init(ptr noundef %0, ptr noundef %1, i64 noundef %2, ptr noundef %3) #0 {
  %5 = alloca i32, align 4
  %6 = alloca ptr, align 8
  %7 = alloca ptr, align 8
  %8 = alloca i64, align 8
  %9 = alloca ptr, align 8
  %10 = alloca ptr, align 8
  %11 = alloca i32, align 4
  store ptr %0, ptr %6, align 8, !tbaa !3
  store ptr %1, ptr %7, align 8, !tbaa !18
  store i64 %2, ptr %8, align 8, !tbaa !15
  store ptr %3, ptr %9, align 8, !tbaa !20
  call void @llvm.lifetime.start.p0(i64 8, ptr %10) #5
  %12 = load ptr, ptr %6, align 8, !tbaa !3
  store ptr %12, ptr %10, align 8, !tbaa !7
  %13 = call i32 @ossl_prov_is_running()
  %14 = icmp ne i32 %13, 0
  br i1 %14, label %15, label %20

15:                                               ; preds = %4
  %16 = load ptr, ptr %10, align 8, !tbaa !7
  %17 = load ptr, ptr %9, align 8, !tbaa !20
  %18 = call i32 @siphash_set_params(ptr noundef %16, ptr noundef %17)
  %19 = icmp ne i32 %18, 0
  br i1 %19, label %21, label %20

20:                                               ; preds = %15, %4
  store i32 0, ptr %5, align 4
  store i32 1, ptr %11, align 4
  br label %34

21:                                               ; preds = %15
  %22 = load ptr, ptr %7, align 8, !tbaa !18
  %23 = icmp eq ptr %22, null
  br i1 %23, label %24, label %29

24:                                               ; preds = %21
  %25 = load ptr, ptr %10, align 8, !tbaa !7
  %26 = getelementptr inbounds nuw %struct.siphash_data_st, ptr %25, i32 0, i32 1
  %27 = load ptr, ptr %10, align 8, !tbaa !7
  %28 = getelementptr inbounds nuw %struct.siphash_data_st, ptr %27, i32 0, i32 2
  call void @llvm.memcpy.p0.p0.i64(ptr align 8 %26, ptr align 8 %28, i64 64, i1 false), !tbaa.struct !22
  store i32 1, ptr %5, align 4
  store i32 1, ptr %11, align 4
  br label %34

29:                                               ; preds = %21
  %30 = load ptr, ptr %10, align 8, !tbaa !7
  %31 = load ptr, ptr %7, align 8, !tbaa !18
  %32 = load i64, ptr %8, align 8, !tbaa !15
  %33 = call i32 @siphash_setkey(ptr noundef %30, ptr noundef %31, i64 noundef %32)
  store i32 %33, ptr %5, align 4
  store i32 1, ptr %11, align 4
  br label %34

34:                                               ; preds = %29, %24, %20
  call void @llvm.lifetime.end.p0(i64 8, ptr %10) #5
  %35 = load i32, ptr %5, align 4
  ret i32 %35
}