; Function Attrs: nounwind uwtable
define internal i32 @siphash_init(ptr noundef %0, ptr noundef %1, i64 noundef %2, ptr noundef %3) #0 {
  %5 = tail call i32 @ossl_prov_is_running() #5
  %.not = icmp eq i32 %5, 0
  br i1 %.not, label %siphash_setkey.exit, label %6

6:                                                ; preds = %4
  %7 = tail call i32 @siphash_set_params(ptr noundef %0, ptr noundef %3)
  %.not10 = icmp eq i32 %7, 0
  br i1 %.not10, label %siphash_setkey.exit, label %8

8:                                                ; preds = %6
  %9 = icmp eq ptr %1, null
  br i1 %9, label %10, label %13

10:                                               ; preds = %8
  %11 = getelementptr inbounds nuw i8, ptr %0, i64 8
  %12 = getelementptr inbounds nuw i8, ptr %0, i64 72
  tail call void @llvm.memcpy.p0.p0.i64(ptr noundef nonnull align 8 dereferenceable(64) %11, ptr noundef nonnull align 8 dereferenceable(64) %12, i64 64, i1 false), !tbaa.struct !16
  br label %siphash_setkey.exit

13:                                               ; preds = %8
  %.not.i = icmp eq i64 %2, 16
  br i1 %.not.i, label %14, label %siphash_setkey.exit

14:                                               ; preds = %13
  %15 = getelementptr inbounds nuw i8, ptr %0, i64 8
  %16 = getelementptr i8, ptr %0, i64 136
  %.val.i = load i32, ptr %16, align 8, !tbaa !17
  %.not.i.i = icmp eq i32 %.val.i, 0
  %spec.select.i.i = select i1 %.not.i.i, i32 2, i32 %.val.i
  %17 = getelementptr i8, ptr %0, i64 140
  %.val10.i = load i32, ptr %17, align 4, !tbaa !18
  %.not.i11.i = icmp eq i32 %.val10.i, 0
  %spec.select.i12.i = select i1 %.not.i11.i, i32 4, i32 %.val10.i
  %18 = tail call i32 @SipHash_Init(ptr noundef nonnull %15, ptr noundef nonnull %1, i32 noundef %spec.select.i.i, i32 noundef %spec.select.i12.i) #5
  %.not9.i = icmp eq i32 %18, 0
  br i1 %.not9.i, label %siphash_setkey.exit, label %19

19:                                               ; preds = %14
  %20 = getelementptr inbounds nuw i8, ptr %0, i64 72
  tail call void @llvm.memcpy.p0.p0.i64(ptr noundef nonnull align 8 dereferenceable(64) %20, ptr noundef nonnull align 8 dereferenceable(64) %15, i64 64, i1 false), !tbaa.struct !16
  br label %siphash_setkey.exit

siphash_setkey.exit:                              ; preds = %19, %14, %13, %4, %6, %10
  %.0 = phi i32 [ 1, %10 ], [ 0, %6 ], [ 0, %4 ], [ 0, %13 ], [ %18, %19 ], [ 0, %14 ]
  ret i32 %.0
}